(dp0
S'17791252591'
p1
(lp2
(dp3
Vdomain
p4
V.weibo.com
p5
sVsecure
p6
I00
sVvalue
p7
Vfac04a60c802bc29dbcc339bdb9ffcc2
p8
sVexpiry
p9
NsVpath
p10
V/
p11
sVhttpOnly
p12
I00
sVname
p13
Vlogin_sid_t
p14
sa(dp15
Vdomain
p16
V.weibo.com
p17
sVsecure
p18
I00
sVvalue
p19
V-
p20
sVexpiry
p21
NsVpath
p22
g11
sVhttpOnly
p23
I00
sVname
p24
V_s_tentry
p25
sa(dp26
Vdomain
p27
V.weibo.com
p28
sVsecure
p29
I00
sVvalue
p30
V216982475285.48322.1501089451998
p31
sVexpiry
p32
NsVpath
p33
g11
sVhttpOnly
p34
I00
sVname
p35
VApache
p36
sa(dp37
Vdomain
p38
V.weibo.com
p39
sVsecure
p40
I00
sVvalue
p41
V216982475285.48322.1501089451998
p42
sVexpiry
p43
NsVpath
p44
g11
sVhttpOnly
p45
I00
sVname
p46
VSINAGLOBAL
p47
sa(dp48
Vdomain
p49
V.weibo.com
p50
sVsecure
p51
I00
sVvalue
p52
V1501089452006:1:1:1:216982475285.48322.1501089451998:
p53
sVexpiry
p54
NsVpath
p55
g11
sVhttpOnly
p56
I00
sVname
p57
VULV
p58
sa(dp59
Vdomain
p60
Vweibo.com
p61
sVsecure
p62
I00
sVvalue
p63
V56862bac2f6bf97368b95873bc687eef
p64
sVexpiry
p65
NsVpath
p66
g11
sVhttpOnly
p67
I00
sVname
p68
VYF-Ugrow-G0
p69
sa(dp70
Vdomain
p71
Vweibo.com
p72
sVsecure
p73
I00
sVvalue
p74
Vff0bdf8d943cc3f0141aed80aebca6b3
p75
sVexpiry
p76
NsVpath
p77
g11
sVhttpOnly
p78
I00
sVname
p79
Vlogin_sid_t
p80
sa(dp81
Vdomain
p82
Vweibo.com
p83
sVsecure
p84
I00
sVvalue
p85
Vbcfc495b47c1efc5be5998b37da5d0e4
p86
sVexpiry
p87
NsVpath
p88
g11
sVhttpOnly
p89
I00
sVname
p90
VYF-V5-G0
p91
sa(dp92
Vdomain
p93
Vweibo.com
p94
sVsecure
p95
I00
sVvalue
p96
Vcd7f674a73035f73|undefined
p97
sVexpiry
p98
NsVpath
p99
g11
sVhttpOnly
p100
I00
sVname
p101
VWBStorage
p102
sa(dp103
Vdomain
p104
Vweibo.com
p105
sVsecure
p106
I00
sVvalue
p107
g20
sVexpiry
p108
NsVpath
p109
g11
sVhttpOnly
p110
I00
sVname
p111
V_s_tentry
p112
sa(dp113
Vdomain
p114
Vweibo.com
p115
sVsecure
p116
I00
sVvalue
p117
V3fd0ccee5c381362
p118
sVexpiry
p119
NsVpath
p120
g11
sVhttpOnly
p121
I00
sVname
p122
VWBtopGlobal_register_version
p123
sa(dp124
Vdomain
p125
Vweibo.com
p126
sVsecure
p127
I00
sVvalue
p128
V1697533213865.4663.1501088593483
p129
sVexpiry
p130
NsVpath
p131
g11
sVhttpOnly
p132
I00
sVname
p133
VApache
p134
sa(dp135
Vdomain
p136
Vweibo.com
p137
sVsecure
p138
I00
sVvalue
p139
V1697533213865.4663.1501088593483
p140
sVexpiry
p141
NsVpath
p142
g11
sVhttpOnly
p143
I00
sVname
p144
VSINAGLOBAL
p145
sa(dp146
Vdomain
p147
Vweibo.com
p148
sVsecure
p149
I00
sVvalue
p150
V1501088593489:1:1:1:1697533213865.4663.1501088593483:
p151
sVexpiry
p152
NsVpath
p153
g11
sVhttpOnly
p154
I00
sVname
p155
VULV
p156
sa(dp157
Vdomain
p158
Vweibo.com
p159
sVsecure
p160
I00
sVvalue
p161
VAg0SkI2rF4uNemiW2B_J3pj_VzB9PwHpzEpNEbN2nVRl7dQm0qd4h6ipp2z8KNly8jMC4OPkMzRUVZ_iQPxugd8.
p162
sVexpiry
p163
NsVpath
p164
g11
sVhttpOnly
p165
I01
sVname
p166
VSCF
p167
sa(dp168
Vdomain
p169
Vweibo.com
p170
sVsecure
p171
I00
sVvalue
p172
V_2A250fLsLDeRhGeBN6loX8CvIzj2IHXVXC6vDrDV8PUNbmtBeLVnakW8sbu4uC8IEPQIyu46rYSyIU8VWiA..
p173
sVexpiry
p174
NsVpath
p175
g11
sVhttpOnly
p176
I01
sVname
p177
VSUB
p178
sa(dp179
Vdomain
p180
Vweibo.com
p181
sVsecure
p182
I00
sVvalue
p183
V0033WrSXqPxfM725Ws9jqgMF55529P9D9WFySWPRqvTSIOqqQGjfVDMv5JpX5K2hUgL.Foq0eKnceh-XSK22dJLoIp7LxKML1KBLBKnLxKqL1hnLBoMce02RSo5fSh-p
p184
sVexpiry
p185
NsVpath
p186
g11
sVhttpOnly
p187
I00
sVname
p188
VSUBP
p189
sa(dp190
Vdomain
p191
Vweibo.com
p192
sVsecure
p193
I00
sVvalue
p194
V03oFHVOJqsyMz5
p195
sVexpiry
p196
NsVpath
p197
g11
sVhttpOnly
p198
I00
sVname
p199
VSUHB
p200
sa(dp201
Vdomain
p202
Vweibo.com
p203
sVsecure
p204
I00
sVvalue
p205
V1501693409
p206
sVexpiry
p207
NsVpath
p208
g11
sVhttpOnly
p209
I00
sVname
p210
VALF
p211
sa(dp212
Vdomain
p213
Vweibo.com
p214
sVsecure
p215
I00
sVvalue
p216
V1501088603
p217
sVexpiry
p218
NsVpath
p219
g11
sVhttpOnly
p220
I00
sVname
p221
VSSOLoginState
p222
sa(dp223
Vdomain
p224
Vweibo.com
p225
sVsecure
p226
I00
sVvalue
p227
V17791252591
p228
sVexpiry
p229
NsVpath
p230
g11
sVhttpOnly
p231
I00
sVname
p232
Vun
p233
sa(dp234
Vdomain
p235
Vweibo.com
p236
sVsecure
p237
I00
sVvalue
p238
V6
p239
sVexpiry
p240
NsVpath
p241
g11
sVhttpOnly
p242
I00
sVname
p243
Vwvr
p244
sa(dp245
Vdomain
p246
Vweibo.com
p247
sVsecure
p248
I00
sVvalue
p249
V280e58c5ca896750f16dcc47ceb234ed
p250
sVexpiry
p251
NsVpath
p252
g11
sVhttpOnly
p253
I00
sVname
p254
VYF-Page-G0
p255
sa(dp256
Vdomain
p257
V.weibo.com
p258
sVsecure
p259
I00
sVvalue
p260
VAkaqDDX455a84861l8nzCJUlbYqLP6GwVrQFQxDR1zcJ-zDlpyp9uz854UMBMWcIw_6rbmBJaLYSz90TwaqT0hQ.
p261
sVexpiry
p262
NsVpath
p263
g11
sVhttpOnly
p264
I01
sVname
p265
VSCF
p266
sa(dp267
Vdomain
p268
V.weibo.com
p269
sVsecure
p270
I00
sVvalue
p271
V_2A250fL6yDeRhGeBN6loX8CvIzj2IHXVXC5d6rDV8PUNbmtAKLUHQkW9RnSBvam40DOkHFLL6c55raihklg..
p272
sVexpiry
p273
NsVpath
p274
g11
sVhttpOnly
p275
I01
sVname
p276
VSUB
p277
sa(dp278
Vdomain
p279
V.weibo.com
p280
sVsecure
p281
I00
sVvalue
p282
V0033WrSXqPxfM725Ws9jqgMF55529P9D9WFySWPRqvTSIOqqQGjfVDMv5JpX5K2hUgL.Foq0eKnceh-XSK22dJLoIp7LxKML1KBLBKnLxKqL1hnLBoMce02RSo5fSh-p
p283
sVexpiry
p284
NsVpath
p285
g11
sVhttpOnly
p286
I00
sVname
p287
VSUBP
p288
sa(dp289
Vdomain
p290
V.weibo.com
p291
sVsecure
p292
I00
sVvalue
p293
V0qj0hXmq24N7xw
p294
sVexpiry
p295
NsVpath
p296
g11
sVhttpOnly
p297
I00
sVname
p298
VSUHB
p299
sa(dp300
Vdomain
p301
V.weibo.com
p302
sVsecure
p303
I00
sVvalue
p304
V1501694312
p305
sVexpiry
p306
NsVpath
p307
g11
sVhttpOnly
p308
I00
sVname
p309
VALF
p310
sa(dp311
Vdomain
p312
V.weibo.com
p313
sVsecure
p314
I00
sVvalue
p315
V1501089506
p316
sVexpiry
p317
NsVpath
p318
g11
sVhttpOnly
p319
I00
sVname
p320
VSSOLoginState
p321
sa(dp322
Vdomain
p323
V.weibo.com
p324
sVsecure
p325
I00
sVvalue
p326
V17791252591
p327
sVexpiry
p328
NsVpath
p329
g11
sVhttpOnly
p330
I00
sVname
p331
Vun
p332
sa(dp333
Vdomain
p334
Vwww.weibo.com
p335
sVsecure
p336
I00
sVvalue
p337
Ve66b2e50a7e7f417f6cc12eec600f517
p338
sVexpiry
p339
NsVpath
p340
g11
sVhttpOnly
p341
I00
sVname
p342
VTC-Ugrow-G0
p343
sa(dp344
Vdomain
p345
V.weibo.com
p346
sVsecure
p347
I00
sVvalue
p348
g239
sVexpiry
p349
NsVpath
p350
g11
sVhttpOnly
p351
I00
sVname
p352
Vwvr
p353
sa(dp354
Vdomain
p355
Vwww.weibo.com
p356
sVsecure
p357
I00
sVvalue
p358
Vac3bb62966dad84dafa780689a4f7fc3
p359
sVexpiry
p360
NsVpath
p361
g11
sVhttpOnly
p362
I00
sVname
p363
VTC-V5-G0
p364
sa(dp365
Vdomain
p366
V.weibo.com
p367
sVsecure
p368
I00
sVvalue
p369
V,,spr_sinamkt_buy_hyww_weibo_t140
p370
sVexpiry
p371
NsVpath
p372
g11
sVhttpOnly
p373
I00
sVname
p374
VUOR
p375
sa(dp376
Vdomain
p377
Vwww.weibo.com
p378
sVsecure
p379
I00
sVvalue
p380
Vfd45e036f9ddd1e4f41a892898506007
p381
sVexpiry
p382
NsVpath
p383
g11
sVhttpOnly
p384
I00
sVname
p385
VTC-Page-G0
p386
sa(dp387
Vdomain
p388
Vwww.weibo.com
p389
sVsecure
p390
I00
sVvalue
p391
V3fd0ccee5c381362
p392
sVexpiry
p393
NsVpath
p394
g11
sVhttpOnly
p395
I00
sVname
p396
VWBtopGlobal_register_version
p397
sas.